target datalayout = "e-m:e-p270:32:32-p271:32:32-p272:64:64-i64:64-i128:128-f80:128-n8:16:32:64-S128"
target triple = "x86_64-pc-linux-gnu"

; Function Attrs: nounwind sspstrong uwtable
define internal i32 @c_find_fdoy(i32 noundef %0, double noundef %1, ptr noundef %2, ptr noundef %3) #0 {
  %5 = alloca i32, align 4
  %6 = alloca i32, align 4
  %7 = alloca double, align 8
  %8 = alloca ptr, align 8
  %9 = alloca ptr, align 8
  %10 = alloca i32, align 4
  %11 = alloca i32, align 4
  %12 = alloca i32, align 4
  %13 = alloca i32, align 4
  store i32 %0, ptr %6, align 4, !tbaa !19
  store double %1, ptr %7, align 8, !tbaa !10
  store ptr %2, ptr %8, align 8, !tbaa !71
  store ptr %3, ptr %9, align 8, !tbaa !71
  call void @llvm.lifetime.start.p0(i64 4, ptr %10) #23
  call void @llvm.lifetime.start.p0(i64 4, ptr %11) #23
  call void @llvm.lifetime.start.p0(i64 4, ptr %12) #23
  store i32 1, ptr %10, align 4, !tbaa !19
  br label %14

14:                                               ; preds = %27, %4
  %15 = load i32, ptr %10, align 4, !tbaa !19
  %16 = icmp slt i32 %15, 31
  br i1 %16, label %17, label %30

17:                                               ; preds = %14
  %18 = load i32, ptr %6, align 4, !tbaa !19
  %19 = load i32, ptr %10, align 4, !tbaa !19
  %20 = load double, ptr %7, align 8, !tbaa !10
  %21 = load ptr, ptr %8, align 8, !tbaa !71
  %22 = load ptr, ptr %9, align 8, !tbaa !71
  %23 = call i32 @c_valid_civil_p(i32 noundef %18, i32 noundef 1, i32 noundef %19, double noundef %20, ptr noundef %11, ptr noundef %12, ptr noundef %21, ptr noundef %22)
  %24 = icmp ne i32 %23, 0
  br i1 %24, label %25, label %26

25:                                               ; preds = %17
  store i32 1, ptr %5, align 4
  store i32 1, ptr %13, align 4
  br label %31

26:                                               ; preds = %17
  br label %27

27:                                               ; preds = %26
  %28 = load i32, ptr %10, align 4, !tbaa !19
  %29 = add nsw i32 %28, 1
  store i32 %29, ptr %10, align 4, !tbaa !19
  br label %14, !llvm.loop !75

30:                                               ; preds = %14
  store i32 0, ptr %5, align 4
  store i32 1, ptr %13, align 4
  br label %31

31:                                               ; preds = %30, %25
  call void @llvm.lifetime.end.p0(i64 4, ptr %12) #23
  call void @llvm.lifetime.end.p0(i64 4, ptr %11) #23
  call void @llvm.lifetime.end.p0(i64 4, ptr %10) #23
  %32 = load i32, ptr %5, align 4
  ret i32 %32
}

; Function Attrs: nounwind sspstrong uwtable
define internal void @c_commercial_to_jd(i32 noundef %0, i32 noundef %1, i32 noundef %2, double noundef %3, ptr noundef %4, ptr noundef %5) #0 {
  %7 = alloca i32, align 4
  %8 = alloca i32, align 4
  %9 = alloca i32, align 4
  %10 = alloca double, align 8
  %11 = alloca ptr, align 8
  %12 = alloca ptr, align 8
  %13 = alloca i32, align 4
  %14 = alloca i32, align 4
  store i32 %0, ptr %7, align 4, !tbaa !19
  store i32 %1, ptr %8, align 4, !tbaa !19
  store i32 %2, ptr %9, align 4, !tbaa !19
  store double %3, ptr %10, align 8, !tbaa !10
  store ptr %4, ptr %11, align 8, !tbaa !71
  store ptr %5, ptr %12, align 8, !tbaa !71
  call void @llvm.lifetime.start.p0(i64 4, ptr %13) #23
  call void @llvm.lifetime.start.p0(i64 4, ptr %14) #23
  %15 = load i32, ptr %7, align 4, !tbaa !19
  %16 = load double, ptr %10, align 8, !tbaa !10
  %17 = call i32 @c_find_fdoy(i32 noundef %15, double noundef %16, ptr noundef %13, ptr noundef %14)
  %18 = load i32, ptr %13, align 4, !tbaa !19
  %19 = add nsw i32 %18, 3
  store i32 %19, ptr %13, align 4, !tbaa !19
  %20 = load i32, ptr %13, align 4, !tbaa !19
  %21 = load i32, ptr %13, align 4, !tbaa !19
  %22 = sub nsw i32 %21, 1
  %23 = add nsw i32 %22, 1
  %24 = icmp slt i32 %23, 0
  br i1 %24, label %25, label %34

25:                                               ; preds = %6
  %26 = load i32, ptr %13, align 4, !tbaa !19
  %27 = sub nsw i32 %26, 1
  %28 = add nsw i32 %27, 1
  %29 = add nsw i32 %28, 1
  %30 = sub nsw i32 0, %29
  %31 = srem i32 %30, 7
  %32 = sub nsw i32 7, %31
  %33 = sub nsw i32 %32, 1
  br label %39

34:                                               ; preds = %6
  %35 = load i32, ptr %13, align 4, !tbaa !19
  %36 = sub nsw i32 %35, 1
  %37 = add nsw i32 %36, 1
  %38 = srem i32 %37, 7
  br label %39

39:                                               ; preds = %34, %25
  %40 = phi i32 [ %33, %25 ], [ %38, %34 ]
  %41 = sub nsw i32 %20, %40
  %42 = load i32, ptr %8, align 4, !tbaa !19
  %43 = sub nsw i32 %42, 1
  %44 = mul nsw i32 7, %43
  %45 = add nsw i32 %41, %44
  %46 = load i32, ptr %9, align 4, !tbaa !19
  %47 = sub nsw i32 %46, 1
  %48 = add nsw i32 %45, %47
  %49 = load ptr, ptr %11, align 8, !tbaa !71
  store i32 %48, ptr %49, align 4, !tbaa !19
  %50 = load ptr, ptr %11, align 8, !tbaa !71
  %51 = load i32, ptr %50, align 4, !tbaa !19
  %52 = sitofp i32 %51 to double
  %53 = load double, ptr %10, align 8, !tbaa !10
  %54 = fcmp olt double %52, %53
  %55 = select i1 %54, i32 0, i32 1
  %56 = load ptr, ptr %12, align 8, !tbaa !71
  store i32 %55, ptr %56, align 4, !tbaa !19
  call void @llvm.lifetime.end.p0(i64 4, ptr %14) #23
  call void @llvm.lifetime.end.p0(i64 4, ptr %13) #23
  ret void
}

; Function Attrs: nounwind sspstrong uwtable
define internal void @c_jd_to_civil(i32 noundef %0, double noundef %1, ptr noundef %2, ptr noundef %3, ptr noundef %4) #0 {
  %6 = alloca i32, align 4
  %7 = alloca double, align 8
  %8 = alloca ptr, align 8
  %9 = alloca ptr, align 8
  %10 = alloca ptr, align 8
  %11 = alloca double, align 8
  %12 = alloca double, align 8
  %13 = alloca double, align 8
  %14 = alloca double, align 8
  %15 = alloca double, align 8
  %16 = alloca double, align 8
  %17 = alloca double, align 8
  %18 = alloca double, align 8
  %19 = alloca double, align 8
  store i32 %0, ptr %6, align 4, !tbaa !19
  store double %1, ptr %7, align 8, !tbaa !10
  store ptr %2, ptr %8, align 8, !tbaa !71
  store ptr %3, ptr %9, align 8, !tbaa !71
  store ptr %4, ptr %10, align 8, !tbaa !71
  call void @llvm.lifetime.start.p0(i64 8, ptr %11) #23
  call void @llvm.lifetime.start.p0(i64 8, ptr %12) #23
  call void @llvm.lifetime.start.p0(i64 8, ptr %13) #23
  call void @llvm.lifetime.start.p0(i64 8, ptr %14) #23
  call void @llvm.lifetime.start.p0(i64 8, ptr %15) #23
  call void @llvm.lifetime.start.p0(i64 8, ptr %16) #23
  call void @llvm.lifetime.start.p0(i64 8, ptr %17) #23
  call void @llvm.lifetime.start.p0(i64 8, ptr %18) #23
  call void @llvm.lifetime.start.p0(i64 8, ptr %19) #23
  %20 = load i32, ptr %6, align 4, !tbaa !19
  %21 = sitofp i32 %20 to double
  %22 = load double, ptr %7, align 8, !tbaa !10
  %23 = fcmp olt double %21, %22
  br i1 %23, label %24, label %27

24:                                               ; preds = %5
  %25 = load i32, ptr %6, align 4, !tbaa !19
  %26 = sitofp i32 %25 to double
  store double %26, ptr %12, align 8, !tbaa !10
  br label %42

27:                                               ; preds = %5
  %28 = load i32, ptr %6, align 4, !tbaa !19
  %29 = sitofp i32 %28 to double
  %30 = fsub double %29, 0x413C7DD040000000
  %31 = fdiv double %30, 0x40E1D58800000000
  %32 = call double @llvm.floor.f64(double %31)
  store double %32, ptr %11, align 8, !tbaa !10
  %33 = load i32, ptr %6, align 4, !tbaa !19
  %34 = add nsw i32 %33, 1
  %35 = sitofp i32 %34 to double
  %36 = load double, ptr %11, align 8, !tbaa !10
  %37 = fadd double %35, %36
  %38 = load double, ptr %11, align 8, !tbaa !10
  %39 = fdiv double %38, 4.000000e+00
  %40 = call double @llvm.floor.f64(double %39)
  %41 = fsub double %37, %40
  store double %41, ptr %12, align 8, !tbaa !10
  br label %42

42:                                               ; preds = %27, %24
  %43 = load double, ptr %12, align 8, !tbaa !10
  %44 = fadd double %43, 1.524000e+03
  store double %44, ptr %13, align 8, !tbaa !10
  %45 = load double, ptr %13, align 8, !tbaa !10
  %46 = fsub double %45, 1.221000e+02
  %47 = fdiv double %46, 3.652500e+02
  %48 = call double @llvm.floor.f64(double %47)
  store double %48, ptr %14, align 8, !tbaa !10
  %49 = load double, ptr %14, align 8, !tbaa !10
  %50 = fmul double 3.652500e+02, %49
  %51 = call double @llvm.floor.f64(double %50)
  store double %51, ptr %15, align 8, !tbaa !10
  %52 = load double, ptr %13, align 8, !tbaa !10
  %53 = load double, ptr %15, align 8, !tbaa !10
  %54 = fsub double %52, %53
  %55 = fdiv double %54, 3.060010e+01
  %56 = call double @llvm.floor.f64(double %55)
  store double %56, ptr %16, align 8, !tbaa !10
  %57 = load double, ptr %13, align 8, !tbaa !10
  %58 = load double, ptr %15, align 8, !tbaa !10
  %59 = fsub double %57, %58
  %60 = load double, ptr %16, align 8, !tbaa !10
  %61 = fmul double 3.060010e+01, %60
  %62 = call double @llvm.floor.f64(double %61)
  %63 = fsub double %59, %62
  store double %63, ptr %19, align 8, !tbaa !10
  %64 = load double, ptr %16, align 8, !tbaa !10
  %65 = fcmp ole double %64, 1.300000e+01
  br i1 %65, label %66, label %71

66:                                               ; preds = %42
  %67 = load double, ptr %16, align 8, !tbaa !10
  %68 = fsub double %67, 1.000000e+00
  store double %68, ptr %18, align 8, !tbaa !10
  %69 = load double, ptr %14, align 8, !tbaa !10
  %70 = fsub double %69, 4.716000e+03
  store double %70, ptr %17, align 8, !tbaa !10
  br label %76

71:                                               ; preds = %42
  %72 = load double, ptr %16, align 8, !tbaa !10
  %73 = fsub double %72, 1.300000e+01
  store double %73, ptr %18, align 8, !tbaa !10
  %74 = load double, ptr %14, align 8, !tbaa !10
  %75 = fsub double %74, 4.715000e+03
  store double %75, ptr %17, align 8, !tbaa !10
  br label %76

76:                                               ; preds = %71, %66
  %77 = load double, ptr %17, align 8, !tbaa !10
  %78 = fptosi double %77 to i32
  %79 = load ptr, ptr %8, align 8, !tbaa !71
  store i32 %78, ptr %79, align 4, !tbaa !19
  %80 = load double, ptr %18, align 8, !tbaa !10
  %81 = fptosi double %80 to i32
  %82 = load ptr, ptr %9, align 8, !tbaa !71
  store i32 %81, ptr %82, align 4, !tbaa !19
  %83 = load double, ptr %19, align 8, !tbaa !10
  %84 = fptosi double %83 to i32
  %85 = load ptr, ptr %10, align 8, !tbaa !71
  store i32 %84, ptr %85, align 4, !tbaa !19
  call void @llvm.lifetime.end.p0(i64 8, ptr %19) #23
  call void @llvm.lifetime.end.p0(i64 8, ptr %18) #23
  call void @llvm.lifetime.end.p0(i64 8, ptr %17) #23
  call void @llvm.lifetime.end.p0(i64 8, ptr %16) #23
  call void @llvm.lifetime.end.p0(i64 8, ptr %15) #23
  call void @llvm.lifetime.end.p0(i64 8, ptr %14) #23
  call void @llvm.lifetime.end.p0(i64 8, ptr %13) #23
  call void @llvm.lifetime.end.p0(i64 8, ptr %12) #23
  call void @llvm.lifetime.end.p0(i64 8, ptr %11) #23
  ret void
}

; Function Attrs: nounwind sspstrong uwtable
define internal void @c_jd_to_commercial(i32 noundef %0, double noundef %1, ptr noundef %2, ptr noundef %3, ptr noundef %4) #0 {
  %6 = alloca i32, align 4
  %7 = alloca double, align 8
  %8 = alloca ptr, align 8
  %9 = alloca ptr, align 8
  %10 = alloca ptr, align 8
  %11 = alloca i32, align 4
  %12 = alloca i32, align 4
  %13 = alloca i32, align 4
  %14 = alloca i32, align 4
  %15 = alloca i32, align 4
  %16 = alloca i32, align 4
  store i32 %0, ptr %6, align 4, !tbaa !19
  store double %1, ptr %7, align 8, !tbaa !10
  store ptr %2, ptr %8, align 8, !tbaa !71
  store ptr %3, ptr %9, align 8, !tbaa !71
  store ptr %4, ptr %10, align 8, !tbaa !71
  call void @llvm.lifetime.start.p0(i64 4, ptr %11) #23
  call void @llvm.lifetime.start.p0(i64 4, ptr %12) #23
  call void @llvm.lifetime.start.p0(i64 4, ptr %13) #23
  call void @llvm.lifetime.start.p0(i64 4, ptr %14) #23
  call void @llvm.lifetime.start.p0(i64 4, ptr %15) #23
  call void @llvm.lifetime.start.p0(i64 4, ptr %16) #23
  %17 = load i32, ptr %6, align 4, !tbaa !19
  %18 = sub nsw i32 %17, 3
  %19 = load double, ptr %7, align 8, !tbaa !10
  call void @c_jd_to_civil(i32 noundef %18, double noundef %19, ptr noundef %11, ptr noundef %12, ptr noundef %13)
  %20 = load i32, ptr %11, align 4, !tbaa !19
  store i32 %20, ptr %14, align 4, !tbaa !19
  %21 = load i32, ptr %14, align 4, !tbaa !19
  %22 = add nsw i32 %21, 1
  %23 = load double, ptr %7, align 8, !tbaa !10
  call void @c_commercial_to_jd(i32 noundef %22, i32 noundef 1, i32 noundef 1, double noundef %23, ptr noundef %15, ptr noundef %16)
  %24 = load i32, ptr %6, align 4, !tbaa !19
  %25 = load i32, ptr %15, align 4, !tbaa !19
  %26 = icmp sge i32 %24, %25
  br i1 %26, label %27, label %31

27:                                               ; preds = %5
  %28 = load i32, ptr %14, align 4, !tbaa !19
  %29 = add nsw i32 %28, 1
  %30 = load ptr, ptr %8, align 8, !tbaa !71
  store i32 %29, ptr %30, align 4, !tbaa !19
  br label %36

31:                                               ; preds = %5
  %32 = load i32, ptr %14, align 4, !tbaa !19
  %33 = load double, ptr %7, align 8, !tbaa !10
  call void @c_commercial_to_jd(i32 noundef %32, i32 noundef 1, i32 noundef 1, double noundef %33, ptr noundef %15, ptr noundef %16)
  %34 = load i32, ptr %14, align 4, !tbaa !19
  %35 = load ptr, ptr %8, align 8, !tbaa !71
  store i32 %34, ptr %35, align 4, !tbaa !19
  br label %36

36:                                               ; preds = %31, %27
  %37 = load i32, ptr %6, align 4, !tbaa !19
  %38 = load i32, ptr %15, align 4, !tbaa !19
  %39 = sub nsw i32 %37, %38
  %40 = icmp slt i32 %39, 0
  br i1 %40, label %41, label %50

41:                                               ; preds = %36
  %42 = load i32, ptr %6, align 4, !tbaa !19
  %43 = load i32, ptr %15, align 4, !tbaa !19
  %44 = sub nsw i32 %42, %43
  %45 = add nsw i32 %44, 1
  %46 = sub nsw i32 0, %45
  %47 = sdiv i32 %46, 7
  %48 = sub nsw i32 0, %47
  %49 = sub nsw i32 %48, 1
  br label %55

50:                                               ; preds = %36
  %51 = load i32, ptr %6, align 4, !tbaa !19
  %52 = load i32, ptr %15, align 4, !tbaa !19
  %53 = sub nsw i32 %51, %52
  %54 = sdiv i32 %53, 7
  br label %55

55:                                               ; preds = %50, %41
  %56 = phi i32 [ %49, %41 ], [ %54, %50 ]
  %57 = add nsw i32 1, %56
  %58 = load ptr, ptr %9, align 8, !tbaa !71
  store i32 %57, ptr %58, align 4, !tbaa !19
  %59 = load i32, ptr %6, align 4, !tbaa !19
  %60 = add nsw i32 %59, 1
  %61 = icmp slt i32 %60, 0
  br i1 %61, label %62, label %70

62:                                               ; preds = %55
  %63 = load i32, ptr %6, align 4, !tbaa !19
  %64 = add nsw i32 %63, 1
  %65 = add nsw i32 %64, 1
  %66 = sub nsw i32 0, %65
  %67 = srem i32 %66, 7
  %68 = sub nsw i32 7, %67
  %69 = sub nsw i32 %68, 1
  br label %74

70:                                               ; preds = %55
  %71 = load i32, ptr %6, align 4, !tbaa !19
  %72 = add nsw i32 %71, 1
  %73 = srem i32 %72, 7
  br label %74

74:                                               ; preds = %70, %62
  %75 = phi i32 [ %69, %62 ], [ %73, %70 ]
  %76 = load ptr, ptr %10, align 8, !tbaa !71
  store i32 %75, ptr %76, align 4, !tbaa !19
  %77 = load ptr, ptr %10, align 8, !tbaa !71
  %78 = load i32, ptr %77, align 4, !tbaa !19
  %79 = icmp eq i32 %78, 0
  br i1 %79, label %80, label %82

80:                                               ; preds = %74
  %81 = load ptr, ptr %10, align 8, !tbaa !71
  store i32 7, ptr %81, align 4, !tbaa !19
  br label %82

82:                                               ; preds = %80, %74
  call void @llvm.lifetime.end.p0(i64 4, ptr %16) #23
  call void @llvm.lifetime.end.p0(i64 4, ptr %15) #23
  call void @llvm.lifetime.end.p0(i64 4, ptr %14) #23
  call void @llvm.lifetime.end.p0(i64 4, ptr %13) #23
  call void @llvm.lifetime.end.p0(i64 4, ptr %12) #23
  call void @llvm.lifetime.end.p0(i64 4, ptr %11) #23
  ret void
}