; Function Attrs: nofree nosync nounwind sspstrong memory(argmem: write) uwtable
define internal fastcc void @c_jd_to_commercial(i32 noundef %0, double noundef %1, ptr noundef nonnull writeonly captures(none) %2, ptr noundef nonnull writeonly captures(none) %3, ptr noundef nonnull writeonly captures(none) %4) unnamed_addr #12 {
  %6 = alloca i32, align 4
  %7 = alloca i32, align 4
  %8 = alloca i32, align 4
  %9 = alloca i32, align 4
  %10 = alloca i32, align 4
  %11 = alloca i32, align 4
  %12 = alloca i32, align 4
  %13 = alloca i32, align 4
  %14 = add nsw i32 %0, -3
  %15 = sitofp i32 %14 to double
  %16 = fcmp ogt double %1, %15
  br i1 %16, label %c_jd_to_civil.exit, label %17

17:                                               ; preds = %5
  %18 = fadd double %15, 0xC13C7DD040000000
  %19 = fdiv double %18, 0x40E1D58800000000
  %20 = tail call double @llvm.floor.f64(double %19)
  %21 = add nsw i32 %0, -2
  %22 = sitofp i32 %21 to double
  %23 = fadd double %20, %22
  %24 = fmul double %20, 2.500000e-01
  %25 = tail call double @llvm.floor.f64(double %24)
  %26 = fsub double %23, %25
  br label %c_jd_to_civil.exit

c_jd_to_civil.exit:                               ; preds = %5, %17
  %.0.i = phi double [ %26, %17 ], [ %15, %5 ]
  %27 = fadd double %.0.i, 1.524000e+03
  %28 = fadd double %27, -1.221000e+02
  %29 = fdiv double %28, 3.652500e+02
  %30 = tail call double @llvm.floor.f64(double %29)
  %31 = fmul double %30, 3.652500e+02
  %32 = tail call double @llvm.floor.f64(double %31)
  %33 = fsub double %27, %32
  %34 = fdiv double %33, 3.060010e+01
  %35 = tail call double @llvm.floor.f64(double %34)
  %36 = fcmp ugt double %35, 1.300000e+01
  %.026.v.i = select i1 %36, double -4.715000e+03, double -4.716000e+03
  %.026.i = fadd double %30, %.026.v.i
  %37 = fptosi double %.026.i to i32
  %38 = add nsw i32 %37, 1
  call void @llvm.lifetime.start.p0(i64 4, ptr nonnull %12) #21
  call void @llvm.lifetime.start.p0(i64 4, ptr nonnull %13) #21
  call void @llvm.lifetime.start.p0(i64 4, ptr nonnull %10) #21
  call void @llvm.lifetime.start.p0(i64 4, ptr nonnull %11) #21
  br label %39

39:                                               ; preds = %39, %c_jd_to_civil.exit
  %.08.i.i = phi i32 [ 1, %c_jd_to_civil.exit ], [ %41, %39 ]
  %40 = call fastcc i32 @c_valid_civil_p(i32 noundef %38, i32 noundef 1, i32 noundef %.08.i.i, double noundef %1, ptr noundef %10, ptr noundef %11, ptr noundef nonnull %12, ptr noundef nonnull %13)
  %.not.i.i = icmp ne i32 %40, 0
  %41 = add nuw nsw i32 %.08.i.i, 1
  %exitcond.not.i.i = icmp eq i32 %41, 31
  %or.cond.i = select i1 %.not.i.i, i1 true, i1 %exitcond.not.i.i
  br i1 %or.cond.i, label %c_find_fdoy.exit.i, label %39, !llvm.loop !80

c_find_fdoy.exit.i:                               ; preds = %39
  call void @llvm.lifetime.end.p0(i64 4, ptr nonnull %11) #21
  call void @llvm.lifetime.end.p0(i64 4, ptr nonnull %10) #21
  %42 = load i32, ptr %12, align 4, !tbaa !33
  %43 = add nsw i32 %42, 3
  %44 = icmp slt i32 %42, -3
  br i1 %44, label %45, label %49

45:                                               ; preds = %c_find_fdoy.exit.i
  %46 = sub nuw nsw i32 -4, %42
  %47 = urem i32 %46, 7
  %48 = sub nuw nsw i32 6, %47
  br label %c_commercial_to_jd.exit

49:                                               ; preds = %c_find_fdoy.exit.i
  %50 = urem i32 %43, 7
  br label %c_commercial_to_jd.exit

c_commercial_to_jd.exit:                          ; preds = %45, %49
  %51 = phi i32 [ %48, %45 ], [ %50, %49 ]
  %52 = sub i32 %43, %51
  call void @llvm.lifetime.end.p0(i64 4, ptr nonnull %13) #21
  call void @llvm.lifetime.end.p0(i64 4, ptr nonnull %12) #21
  %.not = icmp slt i32 %0, %52
  br i1 %.not, label %53, label %68

53:                                               ; preds = %c_commercial_to_jd.exit
  call void @llvm.lifetime.start.p0(i64 4, ptr nonnull %8) #21
  call void @llvm.lifetime.start.p0(i64 4, ptr nonnull %9) #21
  call void @llvm.lifetime.start.p0(i64 4, ptr nonnull %6) #21
  call void @llvm.lifetime.start.p0(i64 4, ptr nonnull %7) #21
  br label %54

54:                                               ; preds = %54, %53
  %.08.i.i23 = phi i32 [ 1, %53 ], [ %56, %54 ]
  %55 = call fastcc i32 @c_valid_civil_p(i32 noundef %37, i32 noundef 1, i32 noundef %.08.i.i23, double noundef %1, ptr noundef %6, ptr noundef %7, ptr noundef nonnull %8, ptr noundef nonnull %9)
  %.not.i.i24 = icmp ne i32 %55, 0
  %56 = add nuw nsw i32 %.08.i.i23, 1
  %exitcond.not.i.i25 = icmp eq i32 %56, 31
  %or.cond.i26 = select i1 %.not.i.i24, i1 true, i1 %exitcond.not.i.i25
  br i1 %or.cond.i26, label %c_find_fdoy.exit.i27, label %54, !llvm.loop !80

c_find_fdoy.exit.i27:                             ; preds = %54
  call void @llvm.lifetime.end.p0(i64 4, ptr nonnull %7) #21
  call void @llvm.lifetime.end.p0(i64 4, ptr nonnull %6) #21
  %57 = load i32, ptr %8, align 4, !tbaa !33
  %58 = add nsw i32 %57, 3
  %59 = icmp slt i32 %57, -3
  br i1 %59, label %60, label %64

60:                                               ; preds = %c_find_fdoy.exit.i27
  %61 = sub nuw nsw i32 -4, %57
  %62 = urem i32 %61, 7
  %63 = sub nuw nsw i32 6, %62
  br label %c_commercial_to_jd.exit28

64:                                               ; preds = %c_find_fdoy.exit.i27
  %65 = urem i32 %58, 7
  br label %c_commercial_to_jd.exit28

c_commercial_to_jd.exit28:                        ; preds = %60, %64
  %66 = phi i32 [ %63, %60 ], [ %65, %64 ]
  %67 = sub i32 %58, %66
  call void @llvm.lifetime.end.p0(i64 4, ptr nonnull %9) #21
  call void @llvm.lifetime.end.p0(i64 4, ptr nonnull %8) #21
  br label %68

68:                                               ; preds = %c_commercial_to_jd.exit, %c_commercial_to_jd.exit28
  %.0 = phi i32 [ %67, %c_commercial_to_jd.exit28 ], [ %52, %c_commercial_to_jd.exit ]
  %storemerge = phi i32 [ %37, %c_commercial_to_jd.exit28 ], [ %38, %c_commercial_to_jd.exit ]
  store i32 %storemerge, ptr %2, align 4, !tbaa !33
  %69 = sub nsw i32 %0, %.0
  %70 = icmp slt i32 %69, 0
  br i1 %70, label %71, label %75

71:                                               ; preds = %68
  %72 = xor i32 %69, -1
  %73 = udiv i32 %72, 7
  %74 = xor i32 %73, -1
  br label %77

75:                                               ; preds = %68
  %76 = udiv i32 %69, 7
  br label %77

77:                                               ; preds = %75, %71
  %78 = phi i32 [ %74, %71 ], [ %76, %75 ]
  %79 = add nsw i32 %78, 1
  store i32 %79, ptr %3, align 4, !tbaa !33
  %80 = icmp slt i32 %0, -1
  br i1 %80, label %81, label %85

81:                                               ; preds = %77
  %82 = sub nuw nsw i32 -2, %0
  %83 = urem i32 %82, 7
  %84 = sub nuw nsw i32 6, %83
  br label %88

85:                                               ; preds = %77
  %86 = add nsw i32 %0, 1
  %87 = urem i32 %86, 7
  br label %88

88:                                               ; preds = %85, %81
  %89 = phi i32 [ %84, %81 ], [ %87, %85 ]
  %90 = icmp eq i32 %89, 0
  %spec.select = select i1 %90, i32 7, i32 %89
  store i32 %spec.select, ptr %4, align 4, !tbaa !33
  ret void
}